; Function Attrs: mustprogress nounwind uwtable
define dso_local noundef nonnull align 4 dereferenceable(16) ptr @_ZNK4llvm10DataLayout14getPointerSpecEj(ptr noundef nonnull align 8 dereferenceable(512) %0, i32 noundef %1) local_unnamed_addr #0 align 2 {
  %.not = icmp eq i32 %1, 0
  br i1 %.not, label %21, label %3

3:                                                ; preds = %2
  %4 = getelementptr inbounds nuw i8, ptr %0, i64 272
  %5 = load ptr, ptr %4, align 8
  %6 = tail call noundef i64 @_ZNK4llvm15SmallVectorBaseIjE4sizeEv(ptr noundef nonnull align 8 dereferenceable(144) %4) #19
  %7 = icmp sgt i64 %6, 0
  br i1 %7, label %_ZSt7advanceIPKN4llvm10DataLayout11PointerSpecElEvRT_T0_.exit.i.i.i, label %_ZN4llvm11lower_boundIRKNS_11SmallVectorINS_10DataLayout11PointerSpecELj8EEERjN12_GLOBAL__N_120LessPointerAddrSpaceEEEDaOT_OT0_T1_.exit

_ZSt7advanceIPKN4llvm10DataLayout11PointerSpecElEvRT_T0_.exit.i.i.i: ; preds = %3, %_ZSt7advanceIPKN4llvm10DataLayout11PointerSpecElEvRT_T0_.exit.i.i.i
  %.05.i.i.i = phi ptr [ %.1.i.i.i, %_ZSt7advanceIPKN4llvm10DataLayout11PointerSpecElEvRT_T0_.exit.i.i.i ], [ %5, %3 ]
  %.0114.i.i.i = phi i64 [ %.112.i.i.i, %_ZSt7advanceIPKN4llvm10DataLayout11PointerSpecElEvRT_T0_.exit.i.i.i ], [ %6, %3 ]
  %8 = lshr i64 %.0114.i.i.i, 1
  %9 = getelementptr inbounds nuw %"struct.llvm::DataLayout::PointerSpec", ptr %.05.i.i.i, i64 %8
  %.val.i.i.i = load i32, ptr %9, align 4
  %10 = icmp ult i32 %.val.i.i.i, %1
  %11 = getelementptr inbounds nuw i8, ptr %9, i64 16
  %12 = xor i64 %8, -1
  %13 = add nsw i64 %.0114.i.i.i, %12
  %.112.i.i.i = select i1 %10, i64 %13, i64 %8
  %.1.i.i.i = select i1 %10, ptr %11, ptr %.05.i.i.i
  %14 = icmp sgt i64 %.112.i.i.i, 0
  br i1 %14, label %_ZSt7advanceIPKN4llvm10DataLayout11PointerSpecElEvRT_T0_.exit.i.i.i, label %_ZN4llvm11lower_boundIRKNS_11SmallVectorINS_10DataLayout11PointerSpecELj8EEERjN12_GLOBAL__N_120LessPointerAddrSpaceEEEDaOT_OT0_T1_.exit, !llvm.loop !259

_ZN4llvm11lower_boundIRKNS_11SmallVectorINS_10DataLayout11PointerSpecELj8EEERjN12_GLOBAL__N_120LessPointerAddrSpaceEEEDaOT_OT0_T1_.exit: ; preds = %_ZSt7advanceIPKN4llvm10DataLayout11PointerSpecElEvRT_T0_.exit.i.i.i, %3
  %.0.lcssa.i.i.i = phi ptr [ %5, %3 ], [ %.1.i.i.i, %_ZSt7advanceIPKN4llvm10DataLayout11PointerSpecElEvRT_T0_.exit.i.i.i ]
  %15 = load ptr, ptr %4, align 8
  %16 = tail call noundef i64 @_ZNK4llvm15SmallVectorBaseIjE4sizeEv(ptr noundef nonnull align 8 dereferenceable(16) %4) #19
  %17 = getelementptr inbounds %"struct.llvm::DataLayout::PointerSpec", ptr %15, i64 %16
  %.not6 = icmp eq ptr %.0.lcssa.i.i.i, %17
  br i1 %.not6, label %21, label %18

18:                                               ; preds = %_ZN4llvm11lower_boundIRKNS_11SmallVectorINS_10DataLayout11PointerSpecELj8EEERjN12_GLOBAL__N_120LessPointerAddrSpaceEEEDaOT_OT0_T1_.exit
  %19 = load i32, ptr %.0.lcssa.i.i.i, align 4
  %20 = icmp eq i32 %19, %1
  br i1 %20, label %24, label %21

21:                                               ; preds = %_ZN4llvm11lower_boundIRKNS_11SmallVectorINS_10DataLayout11PointerSpecELj8EEERjN12_GLOBAL__N_120LessPointerAddrSpaceEEEDaOT_OT0_T1_.exit, %18, %2
  %22 = getelementptr inbounds nuw i8, ptr %0, i64 272
  %23 = load ptr, ptr %22, align 8
  br label %24

24:                                               ; preds = %18, %21
  %.0 = phi ptr [ %23, %21 ], [ %.0.lcssa.i.i.i, %18 ]
  ret ptr %.0
}